target datalayout = "e-m:e-p270:32:32-p271:32:32-p272:64:64-i64:64-i128:128-f80:128-n8:16:32:64-S128"
target triple = "x86_64-pc-linux-gnu"

%struct.FLAC__StreamMetadata_Picture = type { i32, ptr, ptr, i32, i32, i32, i32, i32, ptr }

; Function Attrs: nounwind sspstrong uwtable
define internal i32 @compare_block_data_picture_(ptr noundef %0, ptr noundef %1) #0 {
  %3 = alloca i32, align 4
  %4 = alloca ptr, align 8
  %5 = alloca ptr, align 8
  store ptr %0, ptr %4, align 8, !tbaa !27
  store ptr %1, ptr %5, align 8, !tbaa !27
  %6 = load ptr, ptr %4, align 8, !tbaa !27
  %7 = getelementptr inbounds nuw %struct.FLAC__StreamMetadata_Picture, ptr %6, i32 0, i32 0
  %8 = load i32, ptr %7, align 8, !tbaa !72
  %9 = load ptr, ptr %5, align 8, !tbaa !27
  %10 = getelementptr inbounds nuw %struct.FLAC__StreamMetadata_Picture, ptr %9, i32 0, i32 0
  %11 = load i32, ptr %10, align 8, !tbaa !72
  %12 = icmp ne i32 %8, %11
  br i1 %12, label %13, label %14

13:                                               ; preds = %2
  store i32 0, ptr %3, align 4
  br label %148

14:                                               ; preds = %2
  %15 = load ptr, ptr %4, align 8, !tbaa !27
  %16 = getelementptr inbounds nuw %struct.FLAC__StreamMetadata_Picture, ptr %15, i32 0, i32 1
  %17 = load ptr, ptr %16, align 8, !tbaa !74
  %18 = load ptr, ptr %5, align 8, !tbaa !27
  %19 = getelementptr inbounds nuw %struct.FLAC__StreamMetadata_Picture, ptr %18, i32 0, i32 1
  %20 = load ptr, ptr %19, align 8, !tbaa !74
  %21 = icmp ne ptr %17, %20
  br i1 %21, label %22, label %42

22:                                               ; preds = %14
  %23 = load ptr, ptr %4, align 8, !tbaa !27
  %24 = getelementptr inbounds nuw %struct.FLAC__StreamMetadata_Picture, ptr %23, i32 0, i32 1
  %25 = load ptr, ptr %24, align 8, !tbaa !74
  %26 = icmp eq ptr %25, null
  br i1 %26, label %41, label %27

27:                                               ; preds = %22
  %28 = load ptr, ptr %5, align 8, !tbaa !27
  %29 = getelementptr inbounds nuw %struct.FLAC__StreamMetadata_Picture, ptr %28, i32 0, i32 1
  %30 = load ptr, ptr %29, align 8, !tbaa !74
  %31 = icmp eq ptr %30, null
  br i1 %31, label %41, label %32

32:                                               ; preds = %27
  %33 = load ptr, ptr %4, align 8, !tbaa !27
  %34 = getelementptr inbounds nuw %struct.FLAC__StreamMetadata_Picture, ptr %33, i32 0, i32 1
  %35 = load ptr, ptr %34, align 8, !tbaa !74
  %36 = load ptr, ptr %5, align 8, !tbaa !27
  %37 = getelementptr inbounds nuw %struct.FLAC__StreamMetadata_Picture, ptr %36, i32 0, i32 1
  %38 = load ptr, ptr %37, align 8, !tbaa !74
  %39 = call i32 @strcmp(ptr noundef %35, ptr noundef %38) #14
  %40 = icmp ne i32 %39, 0
  br i1 %40, label %41, label %42

41:                                               ; preds = %32, %27, %22
  store i32 0, ptr %3, align 4
  br label %148

42:                                               ; preds = %32, %14
  %43 = load ptr, ptr %4, align 8, !tbaa !27
  %44 = getelementptr inbounds nuw %struct.FLAC__StreamMetadata_Picture, ptr %43, i32 0, i32 2
  %45 = load ptr, ptr %44, align 8, !tbaa !75
  %46 = load ptr, ptr %5, align 8, !tbaa !27
  %47 = getelementptr inbounds nuw %struct.FLAC__StreamMetadata_Picture, ptr %46, i32 0, i32 2
  %48 = load ptr, ptr %47, align 8, !tbaa !75
  %49 = icmp ne ptr %45, %48
  br i1 %49, label %50, label %70

50:                                               ; preds = %42
  %51 = load ptr, ptr %4, align 8, !tbaa !27
  %52 = getelementptr inbounds nuw %struct.FLAC__StreamMetadata_Picture, ptr %51, i32 0, i32 2
  %53 = load ptr, ptr %52, align 8, !tbaa !75
  %54 = icmp eq ptr %53, null
  br i1 %54, label %69, label %55

55:                                               ; preds = %50
  %56 = load ptr, ptr %5, align 8, !tbaa !27
  %57 = getelementptr inbounds nuw %struct.FLAC__StreamMetadata_Picture, ptr %56, i32 0, i32 2
  %58 = load ptr, ptr %57, align 8, !tbaa !75
  %59 = icmp eq ptr %58, null
  br i1 %59, label %69, label %60

60:                                               ; preds = %55
  %61 = load ptr, ptr %4, align 8, !tbaa !27
  %62 = getelementptr inbounds nuw %struct.FLAC__StreamMetadata_Picture, ptr %61, i32 0, i32 2
  %63 = load ptr, ptr %62, align 8, !tbaa !75
  %64 = load ptr, ptr %5, align 8, !tbaa !27
  %65 = getelementptr inbounds nuw %struct.FLAC__StreamMetadata_Picture, ptr %64, i32 0, i32 2
  %66 = load ptr, ptr %65, align 8, !tbaa !75
  %67 = call i32 @strcmp(ptr noundef %63, ptr noundef %66) #14
  %68 = icmp ne i32 %67, 0
  br i1 %68, label %69, label %70

69:                                               ; preds = %60, %55, %50
  store i32 0, ptr %3, align 4
  br label %148

70:                                               ; preds = %60, %42
  %71 = load ptr, ptr %4, align 8, !tbaa !27
  %72 = getelementptr inbounds nuw %struct.FLAC__StreamMetadata_Picture, ptr %71, i32 0, i32 3
  %73 = load i32, ptr %72, align 8, !tbaa !76
  %74 = load ptr, ptr %5, align 8, !tbaa !27
  %75 = getelementptr inbounds nuw %struct.FLAC__StreamMetadata_Picture, ptr %74, i32 0, i32 3
  %76 = load i32, ptr %75, align 8, !tbaa !76
  %77 = icmp ne i32 %73, %76
  br i1 %77, label %78, label %79

78:                                               ; preds = %70
  store i32 0, ptr %3, align 4
  br label %148

79:                                               ; preds = %70
  %80 = load ptr, ptr %4, align 8, !tbaa !27
  %81 = getelementptr inbounds nuw %struct.FLAC__StreamMetadata_Picture, ptr %80, i32 0, i32 4
  %82 = load i32, ptr %81, align 4, !tbaa !77
  %83 = load ptr, ptr %5, align 8, !tbaa !27
  %84 = getelementptr inbounds nuw %struct.FLAC__StreamMetadata_Picture, ptr %83, i32 0, i32 4
  %85 = load i32, ptr %84, align 4, !tbaa !77
  %86 = icmp ne i32 %82, %85
  br i1 %86, label %87, label %88

87:                                               ; preds = %79
  store i32 0, ptr %3, align 4
  br label %148

88:                                               ; preds = %79
  %89 = load ptr, ptr %4, align 8, !tbaa !27
  %90 = getelementptr inbounds nuw %struct.FLAC__StreamMetadata_Picture, ptr %89, i32 0, i32 5
  %91 = load i32, ptr %90, align 8, !tbaa !78
  %92 = load ptr, ptr %5, align 8, !tbaa !27
  %93 = getelementptr inbounds nuw %struct.FLAC__StreamMetadata_Picture, ptr %92, i32 0, i32 5
  %94 = load i32, ptr %93, align 8, !tbaa !78
  %95 = icmp ne i32 %91, %94
  br i1 %95, label %96, label %97

96:                                               ; preds = %88
  store i32 0, ptr %3, align 4
  br label %148

97:                                               ; preds = %88
  %98 = load ptr, ptr %4, align 8, !tbaa !27
  %99 = getelementptr inbounds nuw %struct.FLAC__StreamMetadata_Picture, ptr %98, i32 0, i32 6
  %100 = load i32, ptr %99, align 4, !tbaa !79
  %101 = load ptr, ptr %5, align 8, !tbaa !27
  %102 = getelementptr inbounds nuw %struct.FLAC__StreamMetadata_Picture, ptr %101, i32 0, i32 6
  %103 = load i32, ptr %102, align 4, !tbaa !79
  %104 = icmp ne i32 %100, %103
  br i1 %104, label %105, label %106

105:                                              ; preds = %97
  store i32 0, ptr %3, align 4
  br label %148

106:                                              ; preds = %97
  %107 = load ptr, ptr %4, align 8, !tbaa !27
  %108 = getelementptr inbounds nuw %struct.FLAC__StreamMetadata_Picture, ptr %107, i32 0, i32 7
  %109 = load i32, ptr %108, align 8, !tbaa !80
  %110 = load ptr, ptr %5, align 8, !tbaa !27
  %111 = getelementptr inbounds nuw %struct.FLAC__StreamMetadata_Picture, ptr %110, i32 0, i32 7
  %112 = load i32, ptr %111, align 8, !tbaa !80
  %113 = icmp ne i32 %109, %112
  br i1 %113, label %114, label %115

114:                                              ; preds = %106
  store i32 0, ptr %3, align 4
  br label %148

115:                                              ; preds = %106
  %116 = load ptr, ptr %4, align 8, !tbaa !27
  %117 = getelementptr inbounds nuw %struct.FLAC__StreamMetadata_Picture, ptr %116, i32 0, i32 8
  %118 = load ptr, ptr %117, align 8, !tbaa !81
  %119 = load ptr, ptr %5, align 8, !tbaa !27
  %120 = getelementptr inbounds nuw %struct.FLAC__StreamMetadata_Picture, ptr %119, i32 0, i32 8
  %121 = load ptr, ptr %120, align 8, !tbaa !81
  %122 = icmp ne ptr %118, %121
  br i1 %122, label %123, label %147

123:                                              ; preds = %115
  %124 = load ptr, ptr %4, align 8, !tbaa !27
  %125 = getelementptr inbounds nuw %struct.FLAC__StreamMetadata_Picture, ptr %124, i32 0, i32 8
  %126 = load ptr, ptr %125, align 8, !tbaa !81
  %127 = icmp eq ptr %126, null
  br i1 %127, label %146, label %128

128:                                              ; preds = %123
  %129 = load ptr, ptr %5, align 8, !tbaa !27
  %130 = getelementptr inbounds nuw %struct.FLAC__StreamMetadata_Picture, ptr %129, i32 0, i32 8
  %131 = load ptr, ptr %130, align 8, !tbaa !81
  %132 = icmp eq ptr %131, null
  br i1 %132, label %146, label %133

133:                                              ; preds = %128
  %134 = load ptr, ptr %4, align 8, !tbaa !27
  %135 = getelementptr inbounds nuw %struct.FLAC__StreamMetadata_Picture, ptr %134, i32 0, i32 8
  %136 = load ptr, ptr %135, align 8, !tbaa !81
  %137 = load ptr, ptr %5, align 8, !tbaa !27
  %138 = getelementptr inbounds nuw %struct.FLAC__StreamMetadata_Picture, ptr %137, i32 0, i32 8
  %139 = load ptr, ptr %138, align 8, !tbaa !81
  %140 = load ptr, ptr %4, align 8, !tbaa !27
  %141 = getelementptr inbounds nuw %struct.FLAC__StreamMetadata_Picture, ptr %140, i32 0, i32 7
  %142 = load i32, ptr %141, align 8, !tbaa !80
  %143 = zext i32 %142 to i64
  %144 = call i32 @memcmp(ptr noundef %136, ptr noundef %139, i64 noundef %143) #14
  %145 = icmp ne i32 %144, 0
  br i1 %145, label %146, label %147

146:                                              ; preds = %133, %128, %123
  store i32 0, ptr %3, align 4
  br label %148

147:                                              ; preds = %133, %115
  store i32 1, ptr %3, align 4
  br label %148

148:                                              ; preds = %147, %146, %114, %105, %96, %87, %78, %69, %41, %13
  %149 = load i32, ptr %3, align 4
  ret i32 %149
}