; Function Attrs: mustprogress nofree nounwind sspstrong willreturn memory(read, inaccessiblemem: none) uwtable
define internal fastcc range(i32 0, 2) i32 @compare_block_data_picture_(ptr noundef readonly captures(none) %0, ptr noundef readonly captures(none) %1) unnamed_addr #8 {
  %3 = load i32, ptr %0, align 8, !tbaa !66
  %4 = load i32, ptr %1, align 8, !tbaa !66
  %.not = icmp eq i32 %3, %4
  br i1 %.not, label %5, label %61

5:                                                ; preds = %2
  %6 = getelementptr inbounds nuw i8, ptr %0, i64 8
  %7 = load ptr, ptr %6, align 8, !tbaa !68
  %8 = getelementptr inbounds nuw i8, ptr %1, i64 8
  %9 = load ptr, ptr %8, align 8, !tbaa !68
  %.not38 = icmp eq ptr %7, %9
  br i1 %.not38, label %15, label %10

10:                                               ; preds = %5
  %11 = icmp eq ptr %7, null
  %12 = icmp eq ptr %9, null
  %or.cond = or i1 %11, %12
  br i1 %or.cond, label %61, label %13

13:                                               ; preds = %10
  %14 = tail call i32 @strcmp(ptr noundef nonnull dereferenceable(1) %7, ptr noundef nonnull dereferenceable(1) %9) #29
  %.not39 = icmp eq i32 %14, 0
  br i1 %.not39, label %15, label %61

15:                                               ; preds = %13, %5
  %16 = getelementptr inbounds nuw i8, ptr %0, i64 16
  %17 = load ptr, ptr %16, align 8, !tbaa !69
  %18 = getelementptr inbounds nuw i8, ptr %1, i64 16
  %19 = load ptr, ptr %18, align 8, !tbaa !69
  %.not40 = icmp eq ptr %17, %19
  br i1 %.not40, label %25, label %20

20:                                               ; preds = %15
  %21 = icmp eq ptr %17, null
  %22 = icmp eq ptr %19, null
  %or.cond49 = or i1 %21, %22
  br i1 %or.cond49, label %61, label %23

23:                                               ; preds = %20
  %24 = tail call i32 @strcmp(ptr noundef nonnull dereferenceable(1) %17, ptr noundef nonnull dereferenceable(1) %19) #29
  %.not41 = icmp eq i32 %24, 0
  br i1 %.not41, label %25, label %61

25:                                               ; preds = %23, %15
  %26 = getelementptr inbounds nuw i8, ptr %0, i64 24
  %27 = load i32, ptr %26, align 8, !tbaa !70
  %28 = getelementptr inbounds nuw i8, ptr %1, i64 24
  %29 = load i32, ptr %28, align 8, !tbaa !70
  %.not42 = icmp eq i32 %27, %29
  br i1 %.not42, label %30, label %61

30:                                               ; preds = %25
  %31 = getelementptr inbounds nuw i8, ptr %0, i64 28
  %32 = load i32, ptr %31, align 4, !tbaa !71
  %33 = getelementptr inbounds nuw i8, ptr %1, i64 28
  %34 = load i32, ptr %33, align 4, !tbaa !71
  %.not43 = icmp eq i32 %32, %34
  br i1 %.not43, label %35, label %61

35:                                               ; preds = %30
  %36 = getelementptr inbounds nuw i8, ptr %0, i64 32
  %37 = load i32, ptr %36, align 8, !tbaa !72
  %38 = getelementptr inbounds nuw i8, ptr %1, i64 32
  %39 = load i32, ptr %38, align 8, !tbaa !72
  %.not44 = icmp eq i32 %37, %39
  br i1 %.not44, label %40, label %61

40:                                               ; preds = %35
  %41 = getelementptr inbounds nuw i8, ptr %0, i64 36
  %42 = load i32, ptr %41, align 4, !tbaa !73
  %43 = getelementptr inbounds nuw i8, ptr %1, i64 36
  %44 = load i32, ptr %43, align 4, !tbaa !73
  %.not45 = icmp eq i32 %42, %44
  br i1 %.not45, label %45, label %61

45:                                               ; preds = %40
  %46 = getelementptr inbounds nuw i8, ptr %0, i64 40
  %47 = load i32, ptr %46, align 8, !tbaa !74
  %48 = getelementptr inbounds nuw i8, ptr %1, i64 40
  %49 = load i32, ptr %48, align 8, !tbaa !74
  %.not46 = icmp eq i32 %47, %49
  br i1 %.not46, label %50, label %61

50:                                               ; preds = %45
  %51 = getelementptr inbounds nuw i8, ptr %0, i64 48
  %52 = load ptr, ptr %51, align 8, !tbaa !75
  %53 = getelementptr inbounds nuw i8, ptr %1, i64 48
  %54 = load ptr, ptr %53, align 8, !tbaa !75
  %.not47 = icmp eq ptr %52, %54
  br i1 %.not47, label %60, label %55

55:                                               ; preds = %50
  %56 = icmp eq ptr %52, null
  %57 = icmp eq ptr %54, null
  %or.cond50 = or i1 %56, %57
  br i1 %or.cond50, label %61, label %58

58:                                               ; preds = %55
  %59 = zext i32 %47 to i64
  %bcmp = tail call i32 @bcmp(ptr nonnull %52, ptr nonnull %54, i64 %59)
  %.not48 = icmp eq i32 %bcmp, 0
  br i1 %.not48, label %60, label %61

60:                                               ; preds = %58, %50
  br label %61

61:                                               ; preds = %55, %58, %45, %40, %35, %30, %25, %20, %23, %10, %13, %2, %60
  %.0 = phi i32 [ 1, %60 ], [ 0, %2 ], [ 0, %13 ], [ 0, %10 ], [ 0, %23 ], [ 0, %20 ], [ 0, %25 ], [ 0, %30 ], [ 0, %35 ], [ 0, %40 ], [ 0, %45 ], [ 0, %58 ], [ 0, %55 ]
  ret i32 %.0
}